; Function Attrs: nounwind uwtable
define hidden i32 @drsuapi_dissect_struct_DsGetMembershipsRequest1(ptr noundef %0, i32 noundef %1, ptr noundef %2, ptr noundef %3, ptr noundef %4, ptr noundef %5, i32 noundef %6, i32 %7) local_unnamed_addr #0 {
  %9 = alloca i32, align 4
  %10 = getelementptr inbounds nuw i8, ptr %4, i64 72
  %11 = load ptr, ptr %10, align 8
  %12 = getelementptr inbounds nuw i8, ptr %11, i64 96
  %13 = load i32, ptr %12, align 8
  %14 = and i32 %13, 1
  %.not = icmp eq i32 %14, 0
  %15 = getelementptr inbounds nuw i8, ptr %4, i64 28
  %16 = load i32, ptr %15, align 4
  %.not58 = icmp ne i32 %16, 0
  br i1 %.not, label %22, label %17

17:                                               ; preds = %8
  %18 = and i32 %1, 7
  %.not61 = icmp eq i32 %18, 0
  %or.cond = or i1 %.not61, %.not58
  br i1 %or.cond, label %27, label %19

19:                                               ; preds = %17
  %20 = and i32 %1, -8
  %21 = add i32 %20, 8
  br label %27

22:                                               ; preds = %8
  %23 = and i32 %1, 3
  %.not59 = icmp eq i32 %23, 0
  %or.cond66 = or i1 %.not59, %.not58
  br i1 %or.cond66, label %27, label %24

24:                                               ; preds = %22
  %25 = and i32 %1, -4
  %26 = add i32 %25, 4
  br label %27

27:                                               ; preds = %22, %24, %17, %19
  %.0 = phi i32 [ %1, %17 ], [ %21, %19 ], [ %1, %22 ], [ %26, %24 ]
  %.not62 = icmp eq ptr %3, null
  br i1 %.not62, label %32, label %28

28:                                               ; preds = %27
  %29 = tail call ptr @proto_tree_add_item(ptr noundef nonnull %3, i32 noundef %6, ptr noundef %0, i32 noundef %.0, i32 noundef -1, i32 noundef 0) #5
  %30 = load i32, ptr @ett_drsuapi_drsuapi_DsGetMembershipsRequest1, align 4
  %31 = tail call ptr @proto_item_add_subtree(ptr noundef %29, i32 noundef %30) #5
  br label %32

32:                                               ; preds = %28, %27
  %.056 = phi ptr [ %29, %28 ], [ null, %27 ]
  %.055 = phi ptr [ %31, %28 ], [ null, %27 ]
  %33 = load i32, ptr @hf_drsuapi_drsuapi_DsGetMembershipsRequest1_count, align 4
  %34 = tail call i32 @PIDL_dissect_uint32(ptr noundef %0, i32 noundef %.0, ptr noundef %2, ptr noundef %.055, ptr noundef nonnull %4, ptr noundef %5, i32 noundef %33, i32 noundef 0) #5
  %35 = load i32, ptr @hf_drsuapi_drsuapi_DsGetMembershipsRequest1_info_array, align 4
  %36 = tail call i32 @dissect_ndr_embedded_pointer(ptr noundef %0, i32 noundef %34, ptr noundef %2, ptr noundef %.055, ptr noundef nonnull %4, ptr noundef %5, ptr noundef nonnull @drsuapi_dissect_element_DsGetMembershipsRequest1_info_array_, i32 noundef 2, ptr noundef nonnull @.str.1460, i32 noundef %35) #5
  %37 = load i32, ptr @hf_drsuapi_drsuapi_DsGetMembershipsRequest1_flags, align 4
  %38 = tail call i32 @PIDL_dissect_uint32(ptr noundef %0, i32 noundef %36, ptr noundef %2, ptr noundef %.055, ptr noundef nonnull %4, ptr noundef %5, i32 noundef %37, i32 noundef 0) #5
  %39 = load i32, ptr @hf_drsuapi_drsuapi_DsGetMembershipsRequest1_type, align 4
  call void @llvm.lifetime.start.p0(i64 4, ptr nonnull %9)
  store i32 0, ptr %9, align 4
  %40 = call i32 @dissect_ndr_uint32(ptr noundef %0, i32 noundef %38, ptr noundef %2, ptr noundef %.055, ptr noundef nonnull %4, ptr noundef %5, i32 noundef %39, ptr noundef nonnull %9) #5
  call void @llvm.lifetime.end.p0(i64 4, ptr nonnull %9)
  %41 = load i32, ptr @hf_drsuapi_drsuapi_DsGetMembershipsRequest1_domain, align 4
  %42 = call i32 @dissect_ndr_embedded_pointer(ptr noundef %0, i32 noundef %40, ptr noundef %2, ptr noundef %.055, ptr noundef nonnull %4, ptr noundef %5, ptr noundef nonnull @drsuapi_dissect_element_DsGetMembershipsRequest1_domain_, i32 noundef 2, ptr noundef nonnull @.str.1463, i32 noundef %41) #5
  %43 = sub i32 %42, %.0
  call void @proto_item_set_len(ptr noundef %.056, i32 noundef %43) #5
  %44 = load ptr, ptr %10, align 8
  %45 = getelementptr inbounds nuw i8, ptr %44, i64 96
  %46 = load i32, ptr %45, align 8
  %47 = and i32 %46, 1
  %.not63 = icmp eq i32 %47, 0
  br i1 %.not63, label %55, label %48

48:                                               ; preds = %32
  %49 = getelementptr inbounds nuw i8, ptr %4, i64 28
  %50 = load i32, ptr %49, align 4
  %.not64 = icmp ne i32 %50, 0
  %51 = and i32 %42, 7
  %.not65 = icmp eq i32 %51, 0
  %or.cond67 = or i1 %.not65, %.not64
  br i1 %or.cond67, label %55, label %52

52:                                               ; preds = %48
  %53 = and i32 %42, -8
  %54 = add i32 %53, 8
  br label %55

55:                                               ; preds = %52, %48, %32
  %.1 = phi i32 [ %42, %48 ], [ %54, %52 ], [ %42, %32 ]
  ret i32 %.1
}